target datalayout = "e-m:e-p270:32:32-p271:32:32-p272:64:64-i64:64-i128:128-f80:128-n8:16:32:64-S128"
target triple = "x86_64-unknown-linux-gnu"

%"class.icu_75::UObject" = type { ptr }
%"class.icu_75::Format" = type <{ %"class.icu_75::UObject", [157 x i8], [157 x i8], [6 x i8] }>

@_ZTVN6icu_757UObjectE = external unnamed_addr constant { [5 x ptr] }, align 8

; Function Attrs: mustprogress nounwind uwtable
define linkonce_odr void @_ZN6icu_757UObjectC2Ev(ptr noundef nonnull align 8 dereferenceable(8) %this) unnamed_addr #0 comdat align 2 {
entry:
  %this.addr = alloca ptr, align 8
  store ptr %this, ptr %this.addr, align 8
  %this1 = load ptr, ptr %this.addr, align 8
  store ptr getelementptr inbounds ({ [5 x ptr] }, ptr @_ZTVN6icu_757UObjectE, i32 0, i32 0, i32 2), ptr %this1, align 8
  ret void
}

; Function Attrs: mustprogress nounwind uwtable
define void @_ZN6icu_756FormatC2Ev(ptr noundef nonnull align 8 dereferenceable(322) %this) unnamed_addr #0 align 2 {
entry:
  %this.addr = alloca ptr, align 8
  store ptr %this, ptr %this.addr, align 8
  %this1 = load ptr, ptr %this.addr, align 8
  %0 = getelementptr inbounds i8, ptr %this1, i64 0
  call void @llvm.memset.p0.i64(ptr align 8 %0, i8 0, i64 8, i1 false)
  call void @_ZN6icu_757UObjectC2Ev(ptr noundef nonnull align 8 dereferenceable(8) %this1) #6
  store ptr getelementptr inbounds ({ [10 x ptr] }, ptr @_ZTVN6icu_756FormatE, i32 0, i32 0, i32 2), ptr %this1, align 8
  %actualLocale = getelementptr inbounds %"class.icu_75::Format", ptr %this1, i32 0, i32 1
  %arraydecay = getelementptr inbounds [157 x i8], ptr %actualLocale, i64 0, i64 0
  store i8 0, ptr %arraydecay, align 8
  %validLocale = getelementptr inbounds %"class.icu_75::Format", ptr %this1, i32 0, i32 2
  %arraydecay2 = getelementptr inbounds [157 x i8], ptr %validLocale, i64 0, i64 0
  store i8 0, ptr %arraydecay2, align 1
  ret void
}